(dp1
S'username'
p2
S'CHAR(128) UNIQUE'
p3
sS'first_name'
p4
S'CHAR(128)'
p5
sS'last_name'
p6
S'CHAR(128)'
p7
sS'password'
p8
S'CHAR(256)'
p9
sS'registration_key'
p10
S'CHAR(128)'
p11
sS'id'
p12
S'INTEGER PRIMARY KEY AUTOINCREMENT'
p13
s.